; Function Attrs: mustprogress nounwind uwtable
define i64 @_ZNK3spv10spirvbin_t9typeRangeENS_2OpE(ptr nocapture noundef nonnull writeonly align 8 dereferenceable(473) %0, i32 noundef %1) local_unnamed_addr #0 align 2 {
  %3 = tail call noundef zeroext i1 @_ZNK3spv10spirvbin_t9isConstOpENS_2OpE(ptr noundef nonnull align 8 dereferenceable(473) %0, i32 noundef %1)
  br i1 %3, label %8, label %4

4:                                                ; preds = %2
  %switch.tableidx = add i32 %1, -23
  %5 = icmp ult i32 %switch.tableidx, 16
  br i1 %5, label %switch.lookup, label %8

switch.lookup:                                    ; preds = %4
  %6 = zext nneg i32 %switch.tableidx to i64
  %switch.gep = getelementptr inbounds [16 x i64], ptr @switch.table._ZNK3spv10spirvbin_t9typeRangeENS_2OpE, i64 0, i64 %6
  %switch.load = load i64, ptr %switch.gep, align 8
  %7 = zext nneg i32 %switch.tableidx to i64
  %switch.gep10 = getelementptr inbounds [16 x i64], ptr @switch.table._ZNK3spv10spirvbin_t9typeRangeENS_2OpE.205, i64 0, i64 %7
  %switch.load11 = load i64, ptr %switch.gep10, align 8
  br label %8

8:                                                ; preds = %4, %switch.lookup, %2
  %.sroa.0.0 = phi i64 [ 1, %2 ], [ %switch.load, %switch.lookup ], [ 0, %4 ]
  %.sroa.6.0 = phi i64 [ 8589934592, %2 ], [ %switch.load11, %switch.lookup ], [ 0, %4 ]
  %.sroa.0.0.insert.insert = or disjoint i64 %.sroa.6.0, %.sroa.0.0
  ret i64 %.sroa.0.0.insert.insert
}